(lp0
(S'deps'
p1
ccopy_reg
_reconstructor
p2
(cino.utils
SpaceList
p3
c__builtin__
list
p4
(lp5
S'.build/uno/src/dependencies.d'
p6
aS'.build/uno/arduino/dependencies.d'
p7
atp8
Rp9
tp10
a(S'stty'
p11
S'/bin/stty'
p12
tp13
a(S'version.txt'
p14
S'/Applications/Arduino.app/Contents/Resources/Java/lib/version.txt'
p15
tp16
a(S'used_libs'
p17
(lp18
S'/Applications/Arduino.app/Contents/Resources/Java/hardware/arduino/cores/arduino'
p19
atp20
a(S'cc'
p21
S'/Applications/Arduino.app/Contents/Resources/Java/hardware/tools/avr/bin/avr-gcc'
p22
tp23
a(S'arduino_libraries_dir'
p24
S'/Applications/Arduino.app/Contents/Resources/Java/libraries'
p25
tp26
a(S'arduino_core_dir'
p27
g19
tp28
a(S'boards.txt'
p29
S'/Applications/Arduino.app/Contents/Resources/Java/hardware/arduino/boards.txt'
p30
tp31
a(S'cxxflags'
p32
g2
(g3
g4
(lp33
S'-fno-exceptions'
p34
atp35
Rp36
tp37
a(S'arduino_variants_dir'
p38
S'/Applications/Arduino.app/Contents/Resources/Java/hardware/arduino/variants'
p39
tp40
a(S'avrdude'
p41
S'/Applications/Arduino.app/Contents/Resources/Java/hardware/tools/avr/bin/avrdude'
p42
tp43
a(S'avrdude.conf'
p44
S'/Applications/Arduino.app/Contents/Resources/Java/hardware/tools/avr/etc/avrdude.conf'
p45
tp46
a(S'names'
p47
(dp48
S'cpp'
p49
S'%s.cpp'
p50
sS'obj'
p51
S'%s.o'
p52
sS'lib'
p53
S'lib%s.a'
p54
sS'deps'
p55
S'%s.d'
p56
stp57
a(S'cflags'
p58
g2
(g3
g4
(lp59
S'-mmcu=atmega328p'
p60
aS'-ffunction-sections'
p61
aS'-fdata-sections'
p62
aS'-g'
p63
aS'-Os'
p64
aS'-w'
p65
aS'-DF_CPU=16000000L'
p66
aS'-DARDUINO=100'
p67
aS'-I/Applications/Arduino.app/Contents/Resources/Java/hardware/arduino/cores/arduino'
p68
aS'-I/Applications/Arduino.app/Contents/Resources/Java/hardware/arduino/variants/standard'
p69
aS'-I/Applications/Arduino.app/Contents/Resources/Java/hardware/arduino/cores/arduino'
p70
aS'-I/Applications/Arduino.app/Contents/Resources/Java/hardware/arduino/cores/arduino/avr-libc'
p71
atp72
Rp73
tp74
a(S'elfflags'
p75
g2
(g3
g4
(lp76
g64
aS'-Wl,--gc-sections'
p77
ag60
atp78
Rp79
tp80
a(S'arduino_lib_version'
p81
g2
(cino.environment
Version
p82
c__builtin__
tuple
p83
(I1
I0
tp84
tp85
Rp86
tp87
a(S'objcopy'
p88
S'/Applications/Arduino.app/Contents/Resources/Java/hardware/tools/avr/bin/avr-objcopy'
p89
tp90
a(S'ar'
p91
S'/Applications/Arduino.app/Contents/Resources/Java/hardware/tools/avr/bin/avr-ar'
p92
tp93
a(S'board_models'
p94
cino.environment
BoardModels
p95
((lp96
(lp97
S'uno'
p98
a(dp99
S'bootloader'
p100
(dp101
S'extended_fuses'
p102
S'0x05'
p103
sS'high_fuses'
p104
S'0xde'
p105
sS'low_fuses'
p106
S'0xff'
p107
sS'lock_bits'
p108
S'0x0F'
p109
sS'file'
p110
S'optiboot_atmega328.hex'
p111
sS'path'
p112
S'optiboot'
p113
sS'unlock_bits'
p114
S'0x3F'
p115
ssS'upload'
p116
(dp117
S'speed'
p118
S'115200'
p119
sS'maximum_size'
p120
S'32256'
p121
sS'protocol'
p122
S'arduino'
p123
ssS'name'
p124
S'Arduino Uno'
p125
sS'build'
p126
(dp127
S'core'
p128
S'arduino'
p129
sS'mcu'
p130
S'atmega328p'
p131
sS'f_cpu'
p132
S'16000000L'
p133
sS'variant'
p134
S'standard'
p135
ssaa(lp136
S'atmega328'
p137
a(dp138
S'bootloader'
p139
(dp140
S'extended_fuses'
p141
S'0x05'
p142
sS'high_fuses'
p143
S'0xDA'
p144
sS'low_fuses'
p145
S'0xFF'
p146
sS'lock_bits'
p147
S'0x0F'
p148
sS'file'
p149
S'ATmegaBOOT_168_atmega328.hex'
p150
sS'path'
p151
S'atmega'
p152
sS'unlock_bits'
p153
S'0x3F'
p154
ssS'upload'
p155
(dp156
S'speed'
p157
S'57600'
p158
sS'maximum_size'
p159
S'30720'
p160
sS'protocol'
p161
S'arduino'
p162
ssS'name'
p163
S'Arduino Duemilanove w/ ATmega328'
p164
sS'build'
p165
(dp166
S'core'
p167
S'arduino'
p168
sS'mcu'
p169
S'atmega328p'
p170
sS'f_cpu'
p171
S'16000000L'
p172
sS'variant'
p173
S'standard'
p174
ssaa(lp175
S'diecimila'
p176
a(dp177
S'bootloader'
p178
(dp179
S'extended_fuses'
p180
S'0x00'
p181
sS'high_fuses'
p182
S'0xdd'
p183
sS'low_fuses'
p184
S'0xff'
p185
sS'lock_bits'
p186
S'0x0F'
p187
sS'file'
p188
S'ATmegaBOOT_168_diecimila.hex'
p189
sS'path'
p190
S'atmega'
p191
sS'unlock_bits'
p192
S'0x3F'
p193
ssS'upload'
p194
(dp195
S'speed'
p196
S'19200'
p197
sS'maximum_size'
p198
S'14336'
p199
sS'protocol'
p200
S'arduino'
p201
ssS'name'
p202
S'Arduino Diecimila or Duemilanove w/ ATmega168'
p203
sS'build'
p204
(dp205
S'core'
p206
S'arduino'
p207
sS'mcu'
p208
S'atmega168'
p209
sS'f_cpu'
p210
S'16000000L'
p211
sS'variant'
p212
S'standard'
p213
ssaa(lp214
S'nano328'
p215
a(dp216
S'bootloader'
p217
(dp218
S'extended_fuses'
p219
S'0x05'
p220
sS'high_fuses'
p221
S'0xDA'
p222
sS'low_fuses'
p223
S'0xFF'
p224
sS'lock_bits'
p225
S'0x0F'
p226
sS'file'
p227
S'ATmegaBOOT_168_atmega328.hex'
p228
sS'path'
p229
S'atmega'
p230
sS'unlock_bits'
p231
S'0x3F'
p232
ssS'upload'
p233
(dp234
S'speed'
p235
S'57600'
p236
sS'maximum_size'
p237
S'30720'
p238
sS'protocol'
p239
S'arduino'
p240
ssS'name'
p241
S'Arduino Nano w/ ATmega328'
p242
sS'build'
p243
(dp244
S'core'
p245
S'arduino'
p246
sS'mcu'
p247
S'atmega328p'
p248
sS'f_cpu'
p249
S'16000000L'
p250
sS'variant'
p251
S'eightanaloginputs'
p252
ssaa(lp253
S'nano'
p254
a(dp255
S'bootloader'
p256
(dp257
S'extended_fuses'
p258
S'0x00'
p259
sS'high_fuses'
p260
S'0xdd'
p261
sS'low_fuses'
p262
S'0xff'
p263
sS'lock_bits'
p264
S'0x0F'
p265
sS'file'
p266
S'ATmegaBOOT_168_diecimila.hex'
p267
sS'path'
p268
S'atmega'
p269
sS'unlock_bits'
p270
S'0x3F'
p271
ssS'upload'
p272
(dp273
S'speed'
p274
S'19200'
p275
sS'maximum_size'
p276
S'14336'
p277
sS'protocol'
p278
S'arduino'
p279
ssS'name'
p280
S'Arduino Nano w/ ATmega168'
p281
sS'build'
p282
(dp283
S'core'
p284
S'arduino'
p285
sS'mcu'
p286
S'atmega168'
p287
sS'f_cpu'
p288
S'16000000L'
p289
sS'variant'
p290
S'eightanaloginputs'
p291
ssaa(lp292
S'mega2560'
p293
a(dp294
S'bootloader'
p295
(dp296
S'extended_fuses'
p297
S'0xFD'
p298
sS'high_fuses'
p299
S'0xD8'
p300
sS'low_fuses'
p301
S'0xFF'
p302
sS'lock_bits'
p303
S'0x0F'
p304
sS'file'
p305
S'stk500boot_v2_mega2560.hex'
p306
sS'path'
p307
S'stk500v2'
p308
sS'unlock_bits'
p309
S'0x3F'
p310
ssS'upload'
p311
(dp312
S'speed'
p313
S'115200'
p314
sS'maximum_size'
p315
S'258048'
p316
sS'protocol'
p317
S'wiring'
p318
ssS'name'
p319
S'Arduino Mega 2560 or Mega ADK'
p320
sS'build'
p321
(dp322
S'core'
p323
S'arduino'
p324
sS'mcu'
p325
S'atmega2560'
p326
sS'f_cpu'
p327
S'16000000L'
p328
sS'variant'
p329
S'mega'
p330
ssaa(lp331
S'mega'
p332
a(dp333
S'bootloader'
p334
(dp335
S'extended_fuses'
p336
S'0xF5'
p337
sS'high_fuses'
p338
S'0xDA'
p339
sS'low_fuses'
p340
S'0xFF'
p341
sS'lock_bits'
p342
S'0x0F'
p343
sS'file'
p344
S'ATmegaBOOT_168_atmega1280.hex'
p345
sS'path'
p346
S'atmega'
p347
sS'unlock_bits'
p348
S'0x3F'
p349
ssS'upload'
p350
(dp351
S'speed'
p352
S'57600'
p353
sS'maximum_size'
p354
S'126976'
p355
sS'protocol'
p356
S'arduino'
p357
ssS'name'
p358
S'Arduino Mega (ATmega1280)'
p359
sS'build'
p360
(dp361
S'core'
p362
S'arduino'
p363
sS'mcu'
p364
S'atmega1280'
p365
sS'f_cpu'
p366
S'16000000L'
p367
sS'variant'
p368
S'mega'
p369
ssaa(lp370
S'leonardo'
p371
a(dp372
S'bootloader'
p373
(dp374
S'extended_fuses'
p375
S'0xcb'
p376
sS'high_fuses'
p377
S'0xd8'
p378
sS'low_fuses'
p379
S'0xff'
p380
sS'lock_bits'
p381
S'0x2F'
p382
sS'file'
p383
S'Caterina-Leonardo.hex'
p384
sS'path'
p385
S'caterina'
p386
sS'unlock_bits'
p387
S'0x3F'
p388
ssS'upload'
p389
(dp390
S'speed'
p391
S'57600'
p392
sS'maximum_size'
p393
S'28672'
p394
sS'protocol'
p395
S'avr109'
p396
sS'disable_flushing'
p397
S'true'
p398
ssS'name'
p399
S'Arduino Leonardo'
p400
sS'build'
p401
(dp402
S'core'
p403
S'arduino'
p404
sS'f_cpu'
p405
S'16000000L'
p406
sS'vid'
p407
S'0x2341'
p408
sS'pid'
p409
S'0x8036'
p410
sS'variant'
p411
S'leonardo'
p412
sS'mcu'
p413
S'atmega32u4'
p414
ssaa(lp415
S'esplora'
p416
a(dp417
S'bootloader'
p418
(dp419
S'extended_fuses'
p420
S'0xcb'
p421
sS'high_fuses'
p422
S'0xd8'
p423
sS'low_fuses'
p424
S'0xff'
p425
sS'lock_bits'
p426
S'0x2F'
p427
sS'file'
p428
S'Caterina-Esplora.hex'
p429
sS'path'
p430
S'caterina'
p431
sS'unlock_bits'
p432
S'0x3F'
p433
ssS'upload'
p434
(dp435
S'speed'
p436
S'57600'
p437
sS'maximum_size'
p438
S'28672'
p439
sS'protocol'
p440
S'avr109'
p441
sS'disable_flushing'
p442
S'true'
p443
ssS'name'
p444
S'Arduino Esplora'
p445
sS'build'
p446
(dp447
S'core'
p448
S'arduino'
p449
sS'f_cpu'
p450
S'16000000L'
p451
sS'vid'
p452
S'0x2341'
p453
sS'pid'
p454
S'0x803C'
p455
sS'variant'
p456
S'leonardo'
p457
sS'mcu'
p458
S'atmega32u4'
p459
ssaa(lp460
S'micro'
p461
a(dp462
S'bootloader'
p463
(dp464
S'extended_fuses'
p465
S'0xcb'
p466
sS'high_fuses'
p467
S'0xd8'
p468
sS'low_fuses'
p469
S'0xff'
p470
sS'lock_bits'
p471
S'0x2F'
p472
sS'file'
p473
S'Caterina-Micro.hex'
p474
sS'path'
p475
S'caterina'
p476
sS'unlock_bits'
p477
S'0x3F'
p478
ssS'upload'
p479
(dp480
S'speed'
p481
S'57600'
p482
sS'maximum_size'
p483
S'28672'
p484
sS'protocol'
p485
S'avr109'
p486
sS'disable_flushing'
p487
S'true'
p488
ssS'name'
p489
S'Arduino Micro'
p490
sS'build'
p491
(dp492
S'core'
p493
S'arduino'
p494
sS'f_cpu'
p495
S'16000000L'
p496
sS'vid'
p497
S'0x2341'
p498
sS'pid'
p499
S'0x8037'
p500
sS'variant'
p501
S'micro'
p502
sS'mcu'
p503
S'atmega32u4'
p504
ssaa(lp505
S'mini328'
p506
a(dp507
S'bootloader'
p508
(dp509
S'extended_fuses'
p510
S'0x05'
p511
sS'high_fuses'
p512
S'0xd8'
p513
sS'low_fuses'
p514
S'0xff'
p515
sS'lock_bits'
p516
S'0x0F'
p517
sS'file'
p518
S'optiboot_atmega328-Mini.hex'
p519
sS'path'
p520
S'optiboot'
p521
sS'unlock_bits'
p522
S'0x3F'
p523
ssS'upload'
p524
(dp525
S'speed'
p526
S'115200'
p527
sS'maximum_size'
p528
S'28672'
p529
sS'protocol'
p530
S'arduino'
p531
ssS'name'
p532
S'Arduino Mini w/ ATmega328'
p533
sS'build'
p534
(dp535
S'core'
p536
S'arduino'
p537
sS'mcu'
p538
S'atmega328p'
p539
sS'f_cpu'
p540
S'16000000L'
p541
sS'variant'
p542
S'eightanaloginputs'
p543
ssaa(lp544
S'mini'
p545
a(dp546
S'bootloader'
p547
(dp548
S'extended_fuses'
p549
S'0x00'
p550
sS'high_fuses'
p551
S'0xdd'
p552
sS'low_fuses'
p553
S'0xff'
p554
sS'lock_bits'
p555
S'0x0F'
p556
sS'file'
p557
S'ATmegaBOOT_168_ng.hex'
p558
sS'path'
p559
S'atmega'
p560
sS'unlock_bits'
p561
S'0x3F'
p562
ssS'upload'
p563
(dp564
S'speed'
p565
S'19200'
p566
sS'maximum_size'
p567
S'14336'
p568
sS'protocol'
p569
S'arduino'
p570
ssS'name'
p571
S'Arduino Mini w/ ATmega168'
p572
sS'build'
p573
(dp574
S'core'
p575
S'arduino'
p576
sS'mcu'
p577
S'atmega168'
p578
sS'f_cpu'
p579
S'16000000L'
p580
sS'variant'
p581
S'eightanaloginputs'
p582
ssaa(lp583
S'ethernet'
p584
a(dp585
S'bootloader'
p586
(dp587
S'extended_fuses'
p588
S'0x05'
p589
sS'high_fuses'
p590
S'0xde'
p591
sS'low_fuses'
p592
S'0xff'
p593
sS'lock_bits'
p594
S'0x0F'
p595
sS'file'
p596
S'optiboot_atmega328.hex'
p597
sS'path'
p598
S'optiboot'
p599
sS'unlock_bits'
p600
S'0x3F'
p601
ssS'upload'
p602
(dp603
S'speed'
p604
S'115200'
p605
sS'maximum_size'
p606
S'32256'
p607
sS'protocol'
p608
S'arduino'
p609
ssS'name'
p610
S'Arduino Ethernet'
p611
sS'build'
p612
(dp613
S'f_cpu'
p614
S'16000000L'
p615
sS'mcu'
p616
S'atmega328p'
p617
sS'variant'
p618
S'standard'
p619
sS'core'
p620
S'arduino'
p621
ssaa(lp622
S'fio'
p623
a(dp624
S'bootloader'
p625
(dp626
S'extended_fuses'
p627
S'0x05'
p628
sS'high_fuses'
p629
S'0xDA'
p630
sS'low_fuses'
p631
S'0xFF'
p632
sS'lock_bits'
p633
S'0x0F'
p634
sS'file'
p635
S'ATmegaBOOT_168_atmega328_pro_8MHz.hex'
p636
sS'path'
p637
S'arduino:atmega'
p638
sS'unlock_bits'
p639
S'0x3F'
p640
ssS'upload'
p641
(dp642
S'speed'
p643
S'57600'
p644
sS'maximum_size'
p645
S'30720'
p646
sS'protocol'
p647
S'arduino'
p648
ssS'name'
p649
S'Arduino Fio'
p650
sS'build'
p651
(dp652
S'core'
p653
S'arduino'
p654
sS'mcu'
p655
S'atmega328p'
p656
sS'f_cpu'
p657
S'8000000L'
p658
sS'variant'
p659
S'eightanaloginputs'
p660
ssaa(lp661
S'bt328'
p662
a(dp663
S'bootloader'
p664
(dp665
S'extended_fuses'
p666
S'0x05'
p667
sS'high_fuses'
p668
S'0xd8'
p669
sS'low_fuses'
p670
S'0xff'
p671
sS'lock_bits'
p672
S'0x0F'
p673
sS'file'
p674
S'ATmegaBOOT_168_atmega328_bt.hex'
p675
sS'path'
p676
S'bt'
p677
sS'unlock_bits'
p678
S'0x3F'
p679
ssS'upload'
p680
(dp681
S'speed'
p682
S'19200'
p683
sS'maximum_size'
p684
S'28672'
p685
sS'protocol'
p686
S'arduino'
p687
sS'disable_flushing'
p688
S'true'
p689
ssS'name'
p690
S'Arduino BT w/ ATmega328'
p691
sS'build'
p692
(dp693
S'core'
p694
S'arduino'
p695
sS'mcu'
p696
S'atmega328p'
p697
sS'f_cpu'
p698
S'16000000L'
p699
sS'variant'
p700
S'eightanaloginputs'
p701
ssaa(lp702
S'bt'
p703
a(dp704
S'bootloader'
p705
(dp706
S'extended_fuses'
p707
S'0x00'
p708
sS'high_fuses'
p709
S'0xdd'
p710
sS'low_fuses'
p711
S'0xff'
p712
sS'lock_bits'
p713
S'0x0F'
p714
sS'file'
p715
S'ATmegaBOOT_168.hex'
p716
sS'path'
p717
S'bt'
p718
sS'unlock_bits'
p719
S'0x3F'
p720
ssS'upload'
p721
(dp722
S'speed'
p723
S'19200'
p724
sS'maximum_size'
p725
S'14336'
p726
sS'protocol'
p727
S'arduino'
p728
sS'disable_flushing'
p729
S'true'
p730
ssS'name'
p731
S'Arduino BT w/ ATmega168'
p732
sS'build'
p733
(dp734
S'core'
p735
S'arduino'
p736
sS'mcu'
p737
S'atmega168'
p738
sS'f_cpu'
p739
S'16000000L'
p740
sS'variant'
p741
S'eightanaloginputs'
p742
ssaa(lp743
S'LilyPadUSB'
p744
a(dp745
S'bootloader'
p746
(dp747
S'extended_fuses'
p748
S'0xce'
p749
sS'high_fuses'
p750
S'0xd8'
p751
sS'low_fuses'
p752
S'0xff'
p753
sS'lock_bits'
p754
S'0x2F'
p755
sS'file'
p756
S'Caterina-LilyPadUSB.hex'
p757
sS'path'
p758
S'caterina-LilyPadUSB'
p759
sS'unlock_bits'
p760
S'0x3F'
p761
ssS'upload'
p762
(dp763
S'speed'
p764
S'57600'
p765
sS'maximum_size'
p766
S'28672'
p767
sS'protocol'
p768
S'avr109'
p769
sS'disable_flushing'
p770
S'true'
p771
ssS'name'
p772
S'LilyPad Arduino USB'
p773
sS'build'
p774
(dp775
S'core'
p776
S'arduino'
p777
sS'f_cpu'
p778
S'8000000L'
p779
sS'vid'
p780
S'0x1B4F'
p781
sS'pid'
p782
S'0x9208'
p783
sS'variant'
p784
S'leonardo'
p785
sS'mcu'
p786
S'atmega32u4'
p787
ssaa(lp788
S'lilypad328'
p789
a(dp790
S'bootloader'
p791
(dp792
S'extended_fuses'
p793
S'0x05'
p794
sS'high_fuses'
p795
S'0xDA'
p796
sS'low_fuses'
p797
S'0xFF'
p798
sS'lock_bits'
p799
S'0x0F'
p800
sS'file'
p801
S'ATmegaBOOT_168_atmega328_pro_8MHz.hex'
p802
sS'path'
p803
S'atmega'
p804
sS'unlock_bits'
p805
S'0x3F'
p806
ssS'upload'
p807
(dp808
S'speed'
p809
S'57600'
p810
sS'maximum_size'
p811
S'30720'
p812
sS'protocol'
p813
S'arduino'
p814
ssS'name'
p815
S'LilyPad Arduino w/ ATmega328'
p816
sS'build'
p817
(dp818
S'core'
p819
S'arduino'
p820
sS'mcu'
p821
S'atmega328p'
p822
sS'f_cpu'
p823
S'8000000L'
p824
sS'variant'
p825
S'standard'
p826
ssaa(lp827
S'lilypad'
p828
a(dp829
S'bootloader'
p830
(dp831
S'extended_fuses'
p832
S'0x00'
p833
sS'high_fuses'
p834
S'0xdd'
p835
sS'low_fuses'
p836
S'0xe2'
p837
sS'lock_bits'
p838
S'0x0F'
p839
sS'file'
p840
S'LilyPadBOOT_168.hex'
p841
sS'path'
p842
S'lilypad'
p843
sS'unlock_bits'
p844
S'0x3F'
p845
ssS'upload'
p846
(dp847
S'speed'
p848
S'19200'
p849
sS'maximum_size'
p850
S'14336'
p851
sS'protocol'
p852
S'arduino'
p853
ssS'name'
p854
S'LilyPad Arduino w/ ATmega168'
p855
sS'build'
p856
(dp857
S'core'
p858
S'arduino'
p859
sS'mcu'
p860
S'atmega168'
p861
sS'f_cpu'
p862
S'8000000L'
p863
sS'variant'
p864
S'standard'
p865
ssaa(lp866
S'pro5v328'
p867
a(dp868
S'bootloader'
p869
(dp870
S'extended_fuses'
p871
S'0x05'
p872
sS'high_fuses'
p873
S'0xDA'
p874
sS'low_fuses'
p875
S'0xFF'
p876
sS'lock_bits'
p877
S'0x0F'
p878
sS'file'
p879
S'ATmegaBOOT_168_atmega328.hex'
p880
sS'path'
p881
S'atmega'
p882
sS'unlock_bits'
p883
S'0x3F'
p884
ssS'upload'
p885
(dp886
S'speed'
p887
S'57600'
p888
sS'maximum_size'
p889
S'30720'
p890
sS'protocol'
p891
S'arduino'
p892
ssS'name'
p893
S'Arduino Pro or Pro Mini (5V, 16 MHz) w/ ATmega328'
p894
sS'build'
p895
(dp896
S'core'
p897
S'arduino'
p898
sS'mcu'
p899
S'atmega328p'
p900
sS'f_cpu'
p901
S'16000000L'
p902
sS'variant'
p903
S'standard'
p904
ssaa(lp905
S'pro5v'
p906
a(dp907
S'bootloader'
p908
(dp909
S'extended_fuses'
p910
S'0x00'
p911
sS'high_fuses'
p912
S'0xdd'
p913
sS'low_fuses'
p914
S'0xff'
p915
sS'lock_bits'
p916
S'0x0F'
p917
sS'file'
p918
S'ATmegaBOOT_168_diecimila.hex'
p919
sS'path'
p920
S'atmega'
p921
sS'unlock_bits'
p922
S'0x3F'
p923
ssS'upload'
p924
(dp925
S'speed'
p926
S'19200'
p927
sS'maximum_size'
p928
S'14336'
p929
sS'protocol'
p930
S'arduino'
p931
ssS'name'
p932
S'Arduino Pro or Pro Mini (5V, 16 MHz) w/ ATmega168'
p933
sS'build'
p934
(dp935
S'core'
p936
S'arduino'
p937
sS'mcu'
p938
S'atmega168'
p939
sS'f_cpu'
p940
S'16000000L'
p941
sS'variant'
p942
S'standard'
p943
ssaa(lp944
S'pro328'
p945
a(dp946
S'bootloader'
p947
(dp948
S'extended_fuses'
p949
S'0x05'
p950
sS'high_fuses'
p951
S'0xDA'
p952
sS'low_fuses'
p953
S'0xFF'
p954
sS'lock_bits'
p955
S'0x0F'
p956
sS'file'
p957
S'ATmegaBOOT_168_atmega328_pro_8MHz.hex'
p958
sS'path'
p959
S'atmega'
p960
sS'unlock_bits'
p961
S'0x3F'
p962
ssS'upload'
p963
(dp964
S'speed'
p965
S'57600'
p966
sS'maximum_size'
p967
S'30720'
p968
sS'protocol'
p969
S'arduino'
p970
ssS'name'
p971
S'Arduino Pro or Pro Mini (3.3V, 8 MHz) w/ ATmega328'
p972
sS'build'
p973
(dp974
S'core'
p975
S'arduino'
p976
sS'mcu'
p977
S'atmega328p'
p978
sS'f_cpu'
p979
S'8000000L'
p980
sS'variant'
p981
S'standard'
p982
ssaa(lp983
S'pro'
p984
a(dp985
S'bootloader'
p986
(dp987
S'extended_fuses'
p988
S'0x00'
p989
sS'high_fuses'
p990
S'0xdd'
p991
sS'low_fuses'
p992
S'0xc6'
p993
sS'lock_bits'
p994
S'0x0F'
p995
sS'file'
p996
S'ATmegaBOOT_168_pro_8MHz.hex'
p997
sS'path'
p998
S'atmega'
p999
sS'unlock_bits'
p1000
S'0x3F'
p1001
ssS'upload'
p1002
(dp1003
S'speed'
p1004
S'19200'
p1005
sS'maximum_size'
p1006
S'14336'
p1007
sS'protocol'
p1008
S'arduino'
p1009
ssS'name'
p1010
S'Arduino Pro or Pro Mini (3.3V, 8 MHz) w/ ATmega168'
p1011
sS'build'
p1012
(dp1013
S'core'
p1014
S'arduino'
p1015
sS'mcu'
p1016
S'atmega168'
p1017
sS'f_cpu'
p1018
S'8000000L'
p1019
sS'variant'
p1020
S'standard'
p1021
ssaa(lp1022
S'atmega168'
p1023
a(dp1024
S'bootloader'
p1025
(dp1026
S'extended_fuses'
p1027
S'0x00'
p1028
sS'high_fuses'
p1029
S'0xdd'
p1030
sS'low_fuses'
p1031
S'0xff'
p1032
sS'lock_bits'
p1033
S'0x0F'
p1034
sS'file'
p1035
S'ATmegaBOOT_168_ng.hex'
p1036
sS'path'
p1037
S'atmega'
p1038
sS'unlock_bits'
p1039
S'0x3F'
p1040
ssS'upload'
p1041
(dp1042
S'speed'
p1043
S'19200'
p1044
sS'maximum_size'
p1045
S'14336'
p1046
sS'protocol'
p1047
S'arduino'
p1048
ssS'name'
p1049
S'Arduino NG or older w/ ATmega168'
p1050
sS'build'
p1051
(dp1052
S'core'
p1053
S'arduino'
p1054
sS'mcu'
p1055
S'atmega168'
p1056
sS'f_cpu'
p1057
S'16000000L'
p1058
sS'variant'
p1059
S'standard'
p1060
ssaa(lp1061
S'atmega8'
p1062
a(dp1063
S'bootloader'
p1064
(dp1065
S'high_fuses'
p1066
S'0xca'
p1067
sS'low_fuses'
p1068
S'0xdf'
p1069
sS'lock_bits'
p1070
S'0x0F'
p1071
sS'file'
p1072
S'ATmegaBOOT-prod-firmware-2009-11-07.hex'
p1073
sS'path'
p1074
S'atmega8'
p1075
sS'unlock_bits'
p1076
S'0x3F'
p1077
ssS'upload'
p1078
(dp1079
S'speed'
p1080
S'19200'
p1081
sS'maximum_size'
p1082
S'7168'
p1083
sS'protocol'
p1084
S'arduino'
p1085
ssS'name'
p1086
S'Arduino NG or older w/ ATmega8'
p1087
sS'build'
p1088
(dp1089
S'core'
p1090
S'arduino'
p1091
sS'mcu'
p1092
S'atmega8'
p1093
sS'f_cpu'
p1094
S'16000000L'
p1095
sS'variant'
p1096
S'standard'
p1097
ssaa(lp1098
S'robotControl'
p1099
a(dp1100
S'bootloader'
p1101
(dp1102
S'extended_fuses'
p1103
S'0xcb'
p1104
sS'high_fuses'
p1105
S'0xd8'
p1106
sS'low_fuses'
p1107
S'0xff'
p1108
sS'lock_bits'
p1109
S'0x2F'
p1110
sS'file'
p1111
S'Caterina-Robot-Control.hex'
p1112
sS'path'
p1113
S'caterina-Arduino_Robot'
p1114
sS'unlock_bits'
p1115
S'0x3F'
p1116
ssS'upload'
p1117
(dp1118
S'speed'
p1119
S'57600'
p1120
sS'maximum_size'
p1121
S'28672'
p1122
sS'protocol'
p1123
S'avr109'
p1124
sS'disable_flushing'
p1125
S'true'
p1126
ssS'name'
p1127
S'Arduino Robot Control'
p1128
sS'build'
p1129
(dp1130
S'core'
p1131
S'robot'
p1132
sS'f_cpu'
p1133
S'16000000L'
p1134
sS'vid'
p1135
S'0x2341'
p1136
sS'pid'
p1137
S'0x8038'
p1138
sS'variant'
p1139
S'robot_control'
p1140
sS'mcu'
p1141
S'atmega32u4'
p1142
ssaa(lp1143
S'robotMotor'
p1144
a(dp1145
S'bootloader'
p1146
(dp1147
S'extended_fuses'
p1148
S'0xcb'
p1149
sS'high_fuses'
p1150
S'0xd8'
p1151
sS'low_fuses'
p1152
S'0xff'
p1153
sS'lock_bits'
p1154
S'0x2F'
p1155
sS'file'
p1156
S'Caterina-Robot-Motor.hex'
p1157
sS'path'
p1158
S'caterina-Arduino_Robot'
p1159
sS'unlock_bits'
p1160
S'0x3F'
p1161
ssS'upload'
p1162
(dp1163
S'speed'
p1164
S'57600'
p1165
sS'maximum_size'
p1166
S'28672'
p1167
sS'protocol'
p1168
S'avr109'
p1169
sS'disable_flushing'
p1170
S'true'
p1171
ssS'name'
p1172
S'Arduino Robot Motor'
p1173
sS'build'
p1174
(dp1175
S'core'
p1176
S'robot'
p1177
sS'f_cpu'
p1178
S'16000000L'
p1179
sS'vid'
p1180
S'0x2341'
p1181
sS'pid'
p1182
S'0x8039'
p1183
sS'variant'
p1184
S'robot_motor'
p1185
sS'mcu'
p1186
S'atmega32u4'
p1187
ssaatp1188
Rp1189
(dp1190
S'default'
p1191
S'uno'
p1192
sbtp1193
a(S'cxx'
p1194
S'/Applications/Arduino.app/Contents/Resources/Java/hardware/tools/avr/bin/avr-g++'
p1195
tp1196
a(S'build_dir'
p1197
S'.build/uno'
p1198
tp1199
a.